target datalayout = "e-m:e-p270:32:32-p271:32:32-p272:64:64-i64:64-i128:128-f80:128-n8:16:32:64-S128"
target triple = "x86_64-pc-linux-gnu"

%struct.job_record = type { i32, ptr, ptr, ptr, ptr, i16, i32, i32, i32, ptr, i32, ptr, ptr, i16, ptr, double, i64, ptr, ptr, ptr, ptr, ptr, ptr, i32, ptr, i32, i64, i64, i32, i32, ptr, i16, i64, i64, i8, i32, ptr, ptr, ptr, ptr, ptr, ptr, ptr, ptr, i32, ptr, ptr, i32, ptr, i32, ptr, i32, ptr, i32, ptr, ptr, ptr, ptr, ptr, ptr, i32, i16, i64, ptr, ptr, ptr, ptr, %struct.acct_policy_limit_set_t, i16, ptr, ptr, ptr, ptr, ptr, i32, ptr, ptr, ptr, ptr, ptr, i32, i32, ptr, ptr, ptr, i16, ptr, ptr, i8, ptr, ptr, i64, i64, i8, i32, i32, i8, i32, ptr, i32, i64, i32, ptr, ptr, ptr, i8, i16, i64, i32, ptr, ptr, ptr, ptr, ptr, i16, i32, ptr, ptr, ptr, ptr, i32, ptr, i32, i16, i64, ptr, i32, i32, ptr, i64, ptr, ptr, i64, i32, i32, i64, i32, i32, ptr, ptr, ptr, ptr, ptr, ptr, ptr, ptr, ptr, ptr, ptr, ptr, i32, ptr, i16, i16, i16, i16, ptr, i32, i32, i8, i64 }
%struct.acct_policy_limit_set_t = type { i16, i16, ptr }

@job_list = external global ptr, align 8
@.str.12 = private unnamed_addr constant [26 x i8] c"gang waking preempted %pJ\00", align 1

; Function Attrs: nounwind uwtable
define dso_local void @gs_wake_jobs() #0 {
  %1 = alloca ptr, align 8
  %2 = alloca ptr, align 8
  %3 = alloca i32, align 4
  call void @llvm.lifetime.start.p0(i64 8, ptr %1) #8
  call void @llvm.lifetime.start.p0(i64 8, ptr %2) #8
  %4 = load ptr, ptr @job_list, align 8
  %5 = icmp ne ptr %4, null
  br i1 %5, label %7, label %6

6:                                                ; preds = %0
  store i32 1, ptr %3, align 4
  br label %47

7:                                                ; preds = %0
  %8 = load ptr, ptr @job_list, align 8
  %9 = call ptr @list_iterator_create(ptr noundef %8)
  store ptr %9, ptr %2, align 8
  br label %10

10:                                               ; preds = %44, %19, %7
  %11 = load ptr, ptr %2, align 8
  %12 = call ptr @list_next(ptr noundef %11)
  store ptr %12, ptr %1, align 8
  %13 = icmp ne ptr %12, null
  br i1 %13, label %14, label %45

14:                                               ; preds = %10
  %15 = load ptr, ptr %1, align 8
  %16 = getelementptr inbounds nuw %struct.job_record, ptr %15, i32 0, i32 49
  %17 = load i32, ptr %16, align 8
  %18 = icmp ne i32 %17, 0
  br i1 %18, label %19, label %20

19:                                               ; preds = %14
  br label %10, !llvm.loop !16

20:                                               ; preds = %14
  %21 = load ptr, ptr %1, align 8
  %22 = getelementptr inbounds nuw %struct.job_record, ptr %21, i32 0, i32 60
  %23 = load i32, ptr %22, align 8
  %24 = and i32 %23, 255
  %25 = icmp eq i32 %24, 2
  br i1 %25, label %26, label %44

26:                                               ; preds = %20
  %27 = load ptr, ptr %1, align 8
  %28 = getelementptr inbounds nuw %struct.job_record, ptr %27, i32 0, i32 97
  %29 = load i32, ptr %28, align 8
  %30 = icmp ne i32 %29, 0
  br i1 %30, label %31, label %44

31:                                               ; preds = %26
  br label %32

32:                                               ; preds = %31
  br label %33

33:                                               ; preds = %32
  %34 = call i32 @get_log_level()
  %35 = icmp sge i32 %34, 3
  br i1 %35, label %36, label %38

36:                                               ; preds = %33
  %37 = load ptr, ptr %1, align 8
  call void (i32, ptr, ...) @log_var(i32 noundef 3, ptr noundef @.str.12, ptr noundef %37)
  br label %38

38:                                               ; preds = %36, %33
  br label %39

39:                                               ; preds = %38
  br label %40

40:                                               ; preds = %39
  br label %41

41:                                               ; preds = %40
  br label %42

42:                                               ; preds = %41
  %43 = load ptr, ptr %1, align 8
  call void @_resume_job(ptr noundef %43)
  br label %44

44:                                               ; preds = %42, %26, %20
  br label %10, !llvm.loop !16

45:                                               ; preds = %10
  %46 = load ptr, ptr %2, align 8
  call void @list_iterator_destroy(ptr noundef %46)
  store i32 0, ptr %3, align 4
  br label %47

47:                                               ; preds = %45, %6
  call void @llvm.lifetime.end.p0(i64 8, ptr %2) #8
  call void @llvm.lifetime.end.p0(i64 8, ptr %1) #8
  %48 = load i32, ptr %3, align 4
  switch i32 %48, label %50 [
    i32 0, label %49
    i32 1, label %49
  ]

49:                                               ; preds = %47, %47
  ret void

50:                                               ; preds = %47
  unreachable
}