; Function Attrs: nounwind uwtable
define dso_local void @gs_wake_jobs() local_unnamed_addr #0 {
  %1 = load ptr, ptr @job_list, align 8
  %.not = icmp eq ptr %1, null
  br i1 %.not, label %22, label %2

2:                                                ; preds = %0
  %3 = tail call ptr @list_iterator_create(ptr noundef nonnull %1) #8
  %4 = tail call ptr @list_next(ptr noundef %3) #8
  %.not811 = icmp eq ptr %4, null
  br i1 %.not811, label %._crit_edge, label %.lr.ph

.lr.ph:                                           ; preds = %2, %.backedge
  %5 = phi ptr [ %21, %.backedge ], [ %4, %2 ]
  %6 = getelementptr inbounds nuw i8, ptr %5, i64 360
  %7 = load i32, ptr %6, align 8
  %.not9 = icmp eq i32 %7, 0
  br i1 %.not9, label %8, label %.backedge

8:                                                ; preds = %.lr.ph
  %9 = getelementptr inbounds nuw i8, ptr %5, i64 448
  %10 = load i32, ptr %9, align 8
  %11 = and i32 %10, 255
  %12 = icmp eq i32 %11, 2
  br i1 %12, label %13, label %.backedge

13:                                               ; preds = %8
  %14 = getelementptr inbounds nuw i8, ptr %5, i64 720
  %15 = load i32, ptr %14, align 8
  %.not10 = icmp eq i32 %15, 0
  br i1 %.not10, label %.backedge, label %16

16:                                               ; preds = %13
  %17 = tail call i32 @get_log_level() #8
  %18 = icmp sgt i32 %17, 2
  br i1 %18, label %19, label %20

19:                                               ; preds = %16
  tail call void (i32, ptr, ...) @log_var(i32 noundef 3, ptr noundef nonnull @.str.12, ptr noundef nonnull %5) #8
  br label %20

20:                                               ; preds = %19, %16
  tail call fastcc void @_resume_job(ptr noundef nonnull %5)
  br label %.backedge

.backedge:                                        ; preds = %8, %13, %20, %.lr.ph
  %21 = tail call ptr @list_next(ptr noundef %3) #8
  %.not8 = icmp eq ptr %21, null
  br i1 %.not8, label %._crit_edge, label %.lr.ph, !llvm.loop !15

._crit_edge:                                      ; preds = %.backedge, %2
  tail call void @list_iterator_destroy(ptr noundef %3) #8
  br label %22

22:                                               ; preds = %0, %._crit_edge
  ret void
}